target datalayout = "e-m:e-p270:32:32-p271:32:32-p272:64:64-i64:64-i128:128-f80:128-n8:16:32:64-S128"
target triple = "x86_64-unknown-linux-gnu"

%"class.hermes::vm::PinnedHermesValue" = type { %"class.hermes::vm::HermesValue" }
%"class.hermes::vm::HermesValue" = type { i64 }
%"class.facebook::jsi::Pointer" = type { ptr }
%"class.hermes::vm::GCCell" = type { %union.anon.281 }
%union.anon.281 = type { %"class.hermes::vm::KindAndSize" }
%"class.hermes::vm::KindAndSize" = type { i32 }
%"struct.facebook::hermes::HermesRuntimeImpl::ManagedValue" = type { %"struct.facebook::jsi::Runtime::PointerValue", %"struct.std::atomic.315", %union.anon.317 }
%"struct.facebook::jsi::Runtime::PointerValue" = type { ptr }
%"struct.std::atomic.315" = type { %"struct.std::__atomic_base.316" }
%"struct.std::__atomic_base.316" = type { i32 }
%union.anon.317 = type { %"class.hermes::vm::PinnedHermesValue" }

; Function Attrs: mustprogress nounwind uwtable
define linkonce_odr hidden noundef i32 @_ZNK6hermes2vm11KindAndSize7getKindEv(ptr noundef nonnull align 4 dereferenceable(4) %this) #1 comdat align 2 {
entry:
  %this.addr = alloca ptr, align 8
  store ptr %this, ptr %this.addr, align 8
  %this1 = load ptr, ptr %this.addr, align 8
  %bf.load = load i32, ptr %this1, align 4
  %bf.lshr = lshr i32 %bf.load, 24
  ret i32 %bf.lshr
}

; Function Attrs: mustprogress uwtable
define linkonce_odr hidden noundef i32 @_ZNK6hermes2vm6GCCell7getKindEv(ptr noundef nonnull align 4 dereferenceable(4) %this) #0 comdat align 2 {
entry:
  %this.addr = alloca ptr, align 8
  store ptr %this, ptr %this.addr, align 8
  %this1 = load ptr, ptr %this.addr, align 8
  %0 = getelementptr inbounds %"class.hermes::vm::GCCell", ptr %this1, i32 0, i32 0
  %call = call noundef i32 @_ZNK6hermes2vm11KindAndSize7getKindEv(ptr noundef nonnull align 4 dereferenceable(4) %0)
  ret i32 %call
}

; Function Attrs: mustprogress uwtable
define linkonce_odr hidden noundef zeroext i1 @_ZN6hermes2vm7JSArray7classofEPKNS0_6GCCellE(ptr noundef %cell) #0 comdat align 2 {
entry:
  %cell.addr = alloca ptr, align 8
  store ptr %cell, ptr %cell.addr, align 8
  %0 = load ptr, ptr %cell.addr, align 8
  %call = call noundef i32 @_ZNK6hermes2vm6GCCell7getKindEv(ptr noundef nonnull align 4 dereferenceable(4) %0)
  %cmp = icmp eq i32 %call, 32
  ret i1 %cmp
}

; Function Attrs: mustprogress uwtable
define linkonce_odr hidden noundef zeroext i1 @_ZN4llvh8isa_implIN6hermes2vm7JSArrayENS2_6GCCellEvE4doitERKS4_(ptr noundef nonnull align 4 dereferenceable(4) %Val) #0 comdat align 2 {
entry:
  %Val.addr = alloca ptr, align 8
  store ptr %Val, ptr %Val.addr, align 8
  %0 = load ptr, ptr %Val.addr, align 8
  %call = call noundef zeroext i1 @_ZN6hermes2vm7JSArray7classofEPKNS0_6GCCellE(ptr noundef %0)
  ret i1 %call
}

; Function Attrs: mustprogress uwtable
define linkonce_odr hidden noundef zeroext i1 @_ZN4llvh11isa_impl_clIN6hermes2vm7JSArrayEPKNS2_6GCCellEE4doitES6_(ptr noundef %Val) #0 comdat align 2 {
entry:
  %Val.addr = alloca ptr, align 8
  store ptr %Val, ptr %Val.addr, align 8
  %0 = load ptr, ptr %Val.addr, align 8
  %call = call noundef zeroext i1 @_ZN4llvh8isa_implIN6hermes2vm7JSArrayENS2_6GCCellEvE4doitERKS4_(ptr noundef nonnull align 4 dereferenceable(4) %0)
  ret i1 %call
}

; Function Attrs: mustprogress nounwind uwtable
define linkonce_odr hidden noundef nonnull align 8 dereferenceable(8) ptr @_ZN4llvh13simplify_typeIPN6hermes2vm6GCCellEE18getSimplifiedValueERS4_(ptr noundef nonnull align 8 dereferenceable(8) %Val) #1 comdat align 2 {
entry:
  %Val.addr = alloca ptr, align 8
  store ptr %Val, ptr %Val.addr, align 8
  %0 = load ptr, ptr %Val.addr, align 8
  ret ptr %0
}

; Function Attrs: mustprogress uwtable
define linkonce_odr hidden noundef zeroext i1 @_ZN4llvh13isa_impl_wrapIN6hermes2vm7JSArrayEPKNS2_6GCCellES6_E4doitERKS6_(ptr noundef nonnull align 8 dereferenceable(8) %Val) #0 comdat align 2 {
entry:
  %Val.addr = alloca ptr, align 8
  store ptr %Val, ptr %Val.addr, align 8
  %0 = load ptr, ptr %Val.addr, align 8
  %1 = load ptr, ptr %0, align 8
  %call = call noundef zeroext i1 @_ZN4llvh11isa_impl_clIN6hermes2vm7JSArrayEPKNS2_6GCCellEE4doitES6_(ptr noundef %1)
  ret i1 %call
}

; Function Attrs: mustprogress uwtable
define linkonce_odr hidden noundef ptr @_ZN4llvh13simplify_typeIKPN6hermes2vm6GCCellEE18getSimplifiedValueERS5_(ptr noundef nonnull align 8 dereferenceable(8) %Val) #0 comdat align 2 {
entry:
  %Val.addr = alloca ptr, align 8
  store ptr %Val, ptr %Val.addr, align 8
  %0 = load ptr, ptr %Val.addr, align 8
  %call = call noundef nonnull align 8 dereferenceable(8) ptr @_ZN4llvh13simplify_typeIPN6hermes2vm6GCCellEE18getSimplifiedValueERS4_(ptr noundef nonnull align 8 dereferenceable(8) %0)
  %1 = load ptr, ptr %call, align 8
  ret ptr %1
}

; Function Attrs: mustprogress uwtable
define linkonce_odr hidden noundef zeroext i1 @_ZN4llvh13isa_impl_wrapIN6hermes2vm7JSArrayEKPNS2_6GCCellEPKS4_E4doitERS6_(ptr noundef nonnull align 8 dereferenceable(8) %Val) #0 comdat align 2 {
entry:
  %Val.addr = alloca ptr, align 8
  %ref.tmp = alloca ptr, align 8
  store ptr %Val, ptr %Val.addr, align 8
  %0 = load ptr, ptr %Val.addr, align 8
  %call = call noundef ptr @_ZN4llvh13simplify_typeIKPN6hermes2vm6GCCellEE18getSimplifiedValueERS5_(ptr noundef nonnull align 8 dereferenceable(8) %0)
  store ptr %call, ptr %ref.tmp, align 8
  %call1 = call noundef zeroext i1 @_ZN4llvh13isa_impl_wrapIN6hermes2vm7JSArrayEPKNS2_6GCCellES6_E4doitERKS6_(ptr noundef nonnull align 8 dereferenceable(8) %ref.tmp)
  ret i1 %call1
}

; Function Attrs: mustprogress uwtable
define linkonce_odr hidden noundef zeroext i1 @_ZN4llvh3isaIN6hermes2vm7JSArrayEPNS2_6GCCellEEEbRKT0_(ptr noundef nonnull align 8 dereferenceable(8) %Val) #0 comdat {
entry:
  %Val.addr = alloca ptr, align 8
  store ptr %Val, ptr %Val.addr, align 8
  %0 = load ptr, ptr %Val.addr, align 8
  %call = call noundef zeroext i1 @_ZN4llvh13isa_impl_wrapIN6hermes2vm7JSArrayEKPNS2_6GCCellEPKS4_E4doitERS6_(ptr noundef nonnull align 8 dereferenceable(8) %0)
  ret i1 %call
}

; Function Attrs: mustprogress nounwind uwtable
define linkonce_odr hidden noundef ptr @_ZNK6hermes2vm11HermesValue10getPointerEv(ptr noundef nonnull align 8 dereferenceable(8) %this) #1 comdat align 2 {
entry:
  %this.addr = alloca ptr, align 8
  store ptr %this, ptr %this.addr, align 8
  %this1 = load ptr, ptr %this.addr, align 8
  %raw_ = getelementptr inbounds %"class.hermes::vm::HermesValue", ptr %this1, i32 0, i32 0
  %0 = load i64, ptr %raw_, align 8
  %and = and i64 %0, 281474976710655
  %1 = inttoptr i64 %and to ptr
  ret ptr %1
}

; Function Attrs: mustprogress nounwind uwtable
define linkonce_odr hidden noundef zeroext i1 @_ZNK6hermes2vm11HermesValue9isPointerEv(ptr noundef nonnull align 8 dereferenceable(8) %this) #1 comdat align 2 {
entry:
  %this.addr = alloca ptr, align 8
  store ptr %this, ptr %this.addr, align 8
  %this1 = load ptr, ptr %this.addr, align 8
  %raw_ = getelementptr inbounds %"class.hermes::vm::HermesValue", ptr %this1, i32 0, i32 0
  %0 = load i64, ptr %raw_, align 8
  %cmp = icmp uge i64 %0, -844424930131968
  ret i1 %cmp
}

; Function Attrs: mustprogress nounwind uwtable
define linkonce_odr hidden noundef nonnull align 8 dereferenceable(8) ptr @_ZNK8facebook6hermes17HermesRuntimeImpl12ManagedValueIN6hermes2vm17PinnedHermesValueEE5valueEv(ptr noundef nonnull align 8 dereferenceable(24) %this) #1 comdat align 2 {
entry:
  %this.addr = alloca ptr, align 8
  store ptr %this, ptr %this.addr, align 8
  %this1 = load ptr, ptr %this.addr, align 8
  %0 = getelementptr inbounds %"struct.facebook::hermes::HermesRuntimeImpl::ManagedValue", ptr %this1, i32 0, i32 2
  ret ptr %0
}

; Function Attrs: mustprogress nounwind uwtable
define linkonce_odr noundef ptr @_ZN8facebook3jsi7Runtime15getPointerValueERKNS0_7PointerE(ptr noundef nonnull align 8 dereferenceable(8) %pointer) #1 comdat align 2 {
entry:
  %pointer.addr = alloca ptr, align 8
  store ptr %pointer, ptr %pointer.addr, align 8
  %0 = load ptr, ptr %pointer.addr, align 8
  %ptr_ = getelementptr inbounds %"class.facebook::jsi::Pointer", ptr %0, i32 0, i32 0
  %1 = load ptr, ptr %ptr_, align 8
  ret ptr %1
}

; Function Attrs: mustprogress uwtable
define linkonce_odr hidden noundef zeroext i1 @_ZN6hermes2vm5vmisaINS0_7JSArrayEEEbNS0_11HermesValueE(i64 %val.coerce) #0 comdat {
entry:
  %val = alloca %"class.hermes::vm::HermesValue", align 8
  %ref.tmp = alloca ptr, align 8
  %coerce.dive = getelementptr inbounds %"class.hermes::vm::HermesValue", ptr %val, i32 0, i32 0
  store i64 %val.coerce, ptr %coerce.dive, align 8
  %call = call noundef zeroext i1 @_ZNK6hermes2vm11HermesValue9isPointerEv(ptr noundef nonnull align 8 dereferenceable(8) %val)
  br i1 %call, label %land.rhs, label %land.end

land.rhs:                                         ; preds = %entry
  %call1 = call noundef ptr @_ZNK6hermes2vm11HermesValue10getPointerEv(ptr noundef nonnull align 8 dereferenceable(8) %val)
  store ptr %call1, ptr %ref.tmp, align 8
  %call2 = call noundef zeroext i1 @_ZN4llvh3isaIN6hermes2vm7JSArrayEPNS2_6GCCellEEEbRKT0_(ptr noundef nonnull align 8 dereferenceable(8) %ref.tmp)
  br label %land.end

land.end:                                         ; preds = %land.rhs, %entry
  %0 = phi i1 [ false, %entry ], [ %call2, %land.rhs ]
  ret i1 %0
}

; Function Attrs: mustprogress uwtable
define linkonce_odr hidden noundef nonnull align 8 dereferenceable(8) ptr @_ZN8facebook6hermes17HermesRuntimeImpl3phvERKNS_3jsi7PointerE(ptr noundef nonnull align 8 dereferenceable(8) %pointer) #0 comdat align 2 {
entry:
  %pointer.addr = alloca ptr, align 8
  store ptr %pointer, ptr %pointer.addr, align 8
  %0 = load ptr, ptr %pointer.addr, align 8
  %call = call noundef ptr @_ZN8facebook3jsi7Runtime15getPointerValueERKNS0_7PointerE(ptr noundef nonnull align 8 dereferenceable(8) %0)
  %call1 = call noundef nonnull align 8 dereferenceable(8) ptr @_ZNK8facebook6hermes17HermesRuntimeImpl12ManagedValueIN6hermes2vm17PinnedHermesValueEE5valueEv(ptr noundef nonnull align 8 dereferenceable(24) %call)
  ret ptr %call1
}

; Function Attrs: mustprogress uwtable
define hidden noundef zeroext i1 @_ZNK8facebook6hermes17HermesRuntimeImpl7isArrayERKNS_3jsi6ObjectE(ptr noundef nonnull align 8 dereferenceable(184) %this, ptr noundef nonnull align 8 dereferenceable(8) %obj) unnamed_addr #0 align 2 {
entry:
  %this.addr = alloca ptr, align 8
  %obj.addr = alloca ptr, align 8
  %agg.tmp = alloca %"class.hermes::vm::HermesValue", align 8
  store ptr %this, ptr %this.addr, align 8
  store ptr %obj, ptr %obj.addr, align 8
  %0 = load ptr, ptr %obj.addr, align 8
  %call = call noundef nonnull align 8 dereferenceable(8) ptr @_ZN8facebook6hermes17HermesRuntimeImpl3phvERKNS_3jsi7PointerE(ptr noundef nonnull align 8 dereferenceable(8) %0)
  call void @llvm.memcpy.p0.p0.i64(ptr align 8 %agg.tmp, ptr align 8 %call, i64 8, i1 false)
  %coerce.dive = getelementptr inbounds %"class.hermes::vm::HermesValue", ptr %agg.tmp, i32 0, i32 0
  %1 = load i64, ptr %coerce.dive, align 8
  %call2 = call noundef zeroext i1 @_ZN6hermes2vm5vmisaINS0_7JSArrayEEEbNS0_11HermesValueE(i64 %1)
  ret i1 %call2
}